; Function Attrs: null_pointer_is_valid sspstrong uwtable
define internal i32 @dissect_ldap_T_not(i1 zeroext %0, ptr noundef %1, i32 noundef %2, ptr noundef %3, ptr noundef %4, i32 noundef %5) #0 {
  %7 = tail call fastcc i32 @dissect_ldap_Filter(ptr noundef %1, i32 noundef %2, ptr noundef %3, ptr noundef %4, i32 noundef %5)
  %8 = getelementptr inbounds nuw i8, ptr %3, i64 16
  %9 = load ptr, ptr %8, align 8
  %10 = getelementptr inbounds nuw i8, ptr %9, i64 408
  %11 = load ptr, ptr %10, align 8
  %12 = load ptr, ptr @Filter_string, align 8
  %.not = icmp eq ptr %12, null
  %13 = select i1 %.not, ptr @.str.892, ptr %12
  %14 = tail call noalias ptr (ptr, ptr, ...) @wmem_strdup_printf(ptr noundef %11, ptr noundef nonnull @.str.900, ptr noundef nonnull %13)
  store ptr %14, ptr @Filter_string, align 8
  ret i32 %7
}